target datalayout = "e-m:e-p270:32:32-p271:32:32-p272:64:64-i64:64-i128:128-f80:128-n8:16:32:64-S128"
target triple = "x86_64-pc-linux-gnu"

%struct.H5O_loc_t = type { ptr, i64, i8 }
%struct.H5G_loc_t = type { ptr, ptr }
%struct.H5G_name_t = type { ptr, ptr, i32 }
%struct.H5O_copy_t = type { i8, i8, i8, i8, i8, i8, i8, ptr, i32, i32, ptr, ptr, i8, ptr, ptr, ptr, ptr, ptr, i64 }

@H5O_init_g = external global i8, align 1
@H5_libterm_g = external global i8, align 1
@.str = private unnamed_addr constant [105 x i8] c"generated/home/dtcxzyw/WorkSpace/Projects/compilers/llvm-opt-benchmark/bench/hdf5/hdf5/src/H5Ocopy_ref.c\00", align 1
@H5E_CANTINIT_g = external global i64, align 8
@H5E_OHDR_g = external global i64, align 8
@H5E_CANTCOPY_g = external global i64, align 8
@.str.11 = private unnamed_addr constant [22 x i8] c"unable to copy object\00", align 1
@__func__.H5O__copy_obj_by_ref = private unnamed_addr constant [21 x i8] c"H5O__copy_obj_by_ref\00", align 1
@.str.14 = private unnamed_addr constant [21 x i8] c"~obj_pointed_by_%llu\00", align 1
@H5E_DATATYPE_g = external global i64, align 8
@.str.15 = private unnamed_addr constant [22 x i8] c"unable to insert link\00", align 1

; Function Attrs: nounwind uwtable
define internal i32 @H5O__copy_obj_by_ref(ptr noundef %0, ptr noundef %1, ptr noundef %2, ptr noundef %3) #0 {
  %5 = alloca i32, align 4
  %6 = alloca ptr, align 8
  %7 = alloca ptr, align 8
  %8 = alloca ptr, align 8
  %9 = alloca ptr, align 8
  %10 = alloca i32, align 4
  %11 = alloca i8, align 1
  %12 = alloca [80 x i8], align 16
  %13 = alloca %struct.H5G_name_t, align 8
  %14 = alloca %struct.H5O_loc_t, align 8
  %15 = alloca %struct.H5G_loc_t, align 8
  %16 = alloca i32, align 4
  store ptr %0, ptr %6, align 8, !tbaa !28
  store ptr %1, ptr %7, align 8, !tbaa !28
  store ptr %2, ptr %8, align 8, !tbaa !29
  store ptr %3, ptr %9, align 8, !tbaa !13
  call void @llvm.lifetime.start.p0(i64 4, ptr %10) #8
  store i32 0, ptr %10, align 4, !tbaa !15
  call void @llvm.lifetime.start.p0(i64 1, ptr %11) #8
  store i8 0, ptr %11, align 1, !tbaa !17
  %17 = load i8, ptr @H5O_init_g, align 1, !tbaa !17, !range !19, !noundef !20
  %18 = trunc i8 %17 to i1
  br i1 %18, label %23, label %19

19:                                               ; preds = %4
  %20 = load i8, ptr @H5_libterm_g, align 1, !tbaa !17, !range !19, !noundef !20
  %21 = trunc i8 %20 to i1
  %22 = xor i1 %21, true
  br label %23

23:                                               ; preds = %19, %4
  %24 = phi i1 [ true, %4 ], [ %22, %19 ]
  %25 = xor i1 %24, true
  %26 = xor i1 %25, true
  %27 = zext i1 %26 to i32
  %28 = sext i32 %27 to i64
  %29 = call i64 @llvm.expect.i64(i64 %28, i64 1)
  %30 = icmp ne i64 %29, 0
  br i1 %30, label %31, label %114

31:                                               ; preds = %23
  %32 = load ptr, ptr %6, align 8, !tbaa !28
  %33 = load ptr, ptr %7, align 8, !tbaa !28
  %34 = load ptr, ptr %9, align 8, !tbaa !13
  %35 = call i32 @H5O_copy_header_map(ptr noundef %32, ptr noundef %33, ptr noundef %34, i1 noundef zeroext false, ptr noundef null, ptr noundef null)
  store i32 %35, ptr %10, align 4, !tbaa !15
  %36 = icmp slt i32 %35, 0
  br i1 %36, label %37, label %56

37:                                               ; preds = %31
  br label %38

38:                                               ; preds = %37
  br label %39

39:                                               ; preds = %38
  br label %40

40:                                               ; preds = %39
  %41 = load i64, ptr @H5E_OHDR_g, align 8, !tbaa !11
  %42 = load i64, ptr @H5E_CANTCOPY_g, align 8, !tbaa !11
  %43 = call i32 (ptr, ptr, i32, i64, i64, ptr, ...) @H5E_printf_stack(ptr noundef @.str, ptr noundef @__func__.H5O__copy_obj_by_ref, i32 noundef 108, i64 noundef %41, i64 noundef %42, ptr noundef @.str.11)
  br label %44

44:                                               ; preds = %40
  br label %45

45:                                               ; preds = %44
  store i8 1, ptr %11, align 1, !tbaa !17
  %46 = load i8, ptr %11, align 1, !tbaa !17, !range !19, !noundef !20
  %47 = trunc i8 %46 to i1
  %48 = zext i1 %47 to i8
  store i8 %48, ptr %11, align 1, !tbaa !17
  br label %49

49:                                               ; preds = %45
  br label %50

50:                                               ; preds = %49
  br label %51

51:                                               ; preds = %50
  store i32 -1, ptr %10, align 4, !tbaa !15
  br label %113

52:                                               ; No predecessors!
  br label %53

53:                                               ; preds = %52
  br label %54

54:                                               ; preds = %53
  br label %55

55:                                               ; preds = %54
  br label %56

56:                                               ; preds = %55, %31
  %57 = load ptr, ptr %7, align 8, !tbaa !28
  %58 = getelementptr inbounds nuw %struct.H5O_loc_t, ptr %57, i32 0, i32 1
  %59 = load i64, ptr %58, align 8, !tbaa !35
  %60 = icmp ne i64 %59, -1
  br i1 %60, label %61, label %112

61:                                               ; preds = %56
  %62 = load i32, ptr %10, align 4, !tbaa !15
  %63 = icmp sgt i32 %62, 0
  br i1 %63, label %64, label %112

64:                                               ; preds = %61
  call void @llvm.lifetime.start.p0(i64 80, ptr %12) #8
  call void @llvm.lifetime.start.p0(i64 24, ptr %13) #8
  call void @llvm.lifetime.start.p0(i64 24, ptr %14) #8
  call void @llvm.lifetime.start.p0(i64 16, ptr %15) #8
  %65 = getelementptr inbounds nuw %struct.H5G_loc_t, ptr %15, i32 0, i32 0
  store ptr %14, ptr %65, align 8, !tbaa !23
  %66 = getelementptr inbounds nuw %struct.H5G_loc_t, ptr %15, i32 0, i32 1
  store ptr %13, ptr %66, align 8, !tbaa !27
  %67 = call i32 @H5G_loc_reset(ptr noundef %15)
  %68 = load ptr, ptr %7, align 8, !tbaa !28
  %69 = getelementptr inbounds nuw %struct.H5O_loc_t, ptr %68, i32 0, i32 0
  %70 = load ptr, ptr %69, align 8, !tbaa !21
  %71 = getelementptr inbounds nuw %struct.H5O_loc_t, ptr %14, i32 0, i32 0
  store ptr %70, ptr %71, align 8, !tbaa !21
  %72 = load ptr, ptr %7, align 8, !tbaa !28
  %73 = getelementptr inbounds nuw %struct.H5O_loc_t, ptr %72, i32 0, i32 1
  %74 = load i64, ptr %73, align 8, !tbaa !35
  %75 = getelementptr inbounds nuw %struct.H5O_loc_t, ptr %14, i32 0, i32 1
  store i64 %74, ptr %75, align 8, !tbaa !35
  %76 = getelementptr inbounds [80 x i8], ptr %12, i64 0, i64 0
  %77 = load ptr, ptr %7, align 8, !tbaa !28
  %78 = getelementptr inbounds nuw %struct.H5O_loc_t, ptr %77, i32 0, i32 1
  %79 = load i64, ptr %78, align 8, !tbaa !35
  %80 = call i32 (ptr, i64, ptr, ...) @snprintf(ptr noundef %76, i64 noundef 80, ptr noundef @.str.14, i64 noundef %79) #8
  %81 = load ptr, ptr %8, align 8, !tbaa !29
  %82 = getelementptr inbounds [80 x i8], ptr %12, i64 0, i64 0
  %83 = load ptr, ptr %9, align 8, !tbaa !13
  %84 = getelementptr inbounds nuw %struct.H5O_copy_t, ptr %83, i32 0, i32 18
  %85 = load i64, ptr %84, align 8, !tbaa !46
  %86 = call i32 @H5L_link(ptr noundef %81, ptr noundef %82, ptr noundef %15, i64 noundef %85)
  %87 = icmp slt i32 %86, 0
  br i1 %87, label %88, label %107

88:                                               ; preds = %64
  br label %89

89:                                               ; preds = %88
  br label %90

90:                                               ; preds = %89
  br label %91

91:                                               ; preds = %90
  %92 = load i64, ptr @H5E_DATATYPE_g, align 8, !tbaa !11
  %93 = load i64, ptr @H5E_CANTINIT_g, align 8, !tbaa !11
  %94 = call i32 (ptr, ptr, i32, i64, i64, ptr, ...) @H5E_printf_stack(ptr noundef @.str, ptr noundef @__func__.H5O__copy_obj_by_ref, i32 noundef 135, i64 noundef %92, i64 noundef %93, ptr noundef @.str.15)
  br label %95

95:                                               ; preds = %91
  br label %96

96:                                               ; preds = %95
  store i8 1, ptr %11, align 1, !tbaa !17
  %97 = load i8, ptr %11, align 1, !tbaa !17, !range !19, !noundef !20
  %98 = trunc i8 %97 to i1
  %99 = zext i1 %98 to i8
  store i8 %99, ptr %11, align 1, !tbaa !17
  br label %100

100:                                              ; preds = %96
  br label %101

101:                                              ; preds = %100
  br label %102

102:                                              ; preds = %101
  store i32 -1, ptr %10, align 4, !tbaa !15
  store i32 10, ptr %16, align 4
  br label %109

103:                                              ; No predecessors!
  br label %104

104:                                              ; preds = %103
  br label %105

105:                                              ; preds = %104
  br label %106

106:                                              ; preds = %105
  br label %107

107:                                              ; preds = %106, %64
  %108 = call i32 @H5G_loc_free(ptr noundef %15)
  store i32 0, ptr %16, align 4
  br label %109

109:                                              ; preds = %102, %107
  call void @llvm.lifetime.end.p0(i64 16, ptr %15) #8
  call void @llvm.lifetime.end.p0(i64 24, ptr %14) #8
  call void @llvm.lifetime.end.p0(i64 24, ptr %13) #8
  call void @llvm.lifetime.end.p0(i64 80, ptr %12) #8
  %110 = load i32, ptr %16, align 4
  switch i32 %110, label %116 [
    i32 0, label %111
    i32 10, label %113
  ]

111:                                              ; preds = %109
  br label %112

112:                                              ; preds = %111, %61, %56
  br label %113

113:                                              ; preds = %112, %109, %51
  br label %114

114:                                              ; preds = %113, %23
  %115 = load i32, ptr %10, align 4, !tbaa !15
  store i32 %115, ptr %5, align 4
  store i32 1, ptr %16, align 4
  br label %116

116:                                              ; preds = %114, %109
  call void @llvm.lifetime.end.p0(i64 1, ptr %11) #8
  call void @llvm.lifetime.end.p0(i64 4, ptr %10) #8
  %117 = load i32, ptr %5, align 4
  ret i32 %117
}