; Function Attrs: nounwind uwtable
define internal fastcc range(i32 -1, -2147483648) i32 @H5O__copy_obj_by_ref(ptr noundef nonnull %0, ptr noundef nonnull %1, ptr noundef nonnull %2, ptr noundef %3) unnamed_addr #0 {
  %5 = alloca [80 x i8], align 16
  %6 = alloca %struct.H5G_name_t, align 8
  %7 = alloca %struct.H5O_loc_t, align 8
  %8 = alloca %struct.H5G_loc_t, align 8
  %9 = load i8, ptr @H5O_init_g, align 1, !tbaa !3, !range !7, !noundef !8
  %10 = trunc nuw i8 %9 to i1
  %11 = load i8, ptr @H5_libterm_g, align 1, !range !7
  %12 = trunc nuw i8 %11 to i1
  %13 = xor i1 %12, true
  %14 = select i1 %10, i1 true, i1 %13
  br i1 %14, label %15, label %45, !prof !9

15:                                               ; preds = %4
  %16 = tail call i32 @H5O_copy_header_map(ptr noundef nonnull %0, ptr noundef nonnull %1, ptr noundef %3, i1 noundef zeroext false, ptr noundef null, ptr noundef null) #8
  %17 = icmp slt i32 %16, 0
  br i1 %17, label %18, label %22

18:                                               ; preds = %15
  %19 = load i64, ptr @H5E_OHDR_g, align 8, !tbaa !10
  %20 = load i64, ptr @H5E_CANTCOPY_g, align 8, !tbaa !10
  %21 = tail call i32 (ptr, ptr, i32, i64, i64, ptr, ...) @H5E_printf_stack(ptr noundef nonnull @.str, ptr noundef nonnull @__func__.H5O__copy_obj_by_ref, i32 noundef 108, i64 noundef %19, i64 noundef %20, ptr noundef nonnull @.str.11) #8
  br label %45

22:                                               ; preds = %15
  %23 = getelementptr inbounds nuw i8, ptr %1, i64 8
  %24 = load i64, ptr %23, align 8, !tbaa !22
  %25 = icmp ne i64 %24, -1
  %26 = icmp ne i32 %16, 0
  %or.cond = and i1 %26, %25
  br i1 %or.cond, label %27, label %45

27:                                               ; preds = %22
  call void @llvm.lifetime.start.p0(i64 80, ptr nonnull %5) #8
  call void @llvm.lifetime.start.p0(i64 24, ptr nonnull %6) #8
  call void @llvm.lifetime.start.p0(i64 24, ptr nonnull %7) #8
  call void @llvm.lifetime.start.p0(i64 16, ptr nonnull %8) #8
  store ptr %7, ptr %8, align 8, !tbaa !16
  %28 = getelementptr inbounds nuw i8, ptr %8, i64 8
  store ptr %6, ptr %28, align 8, !tbaa !20
  %29 = call i32 @H5G_loc_reset(ptr noundef nonnull %8) #8
  %30 = load ptr, ptr %1, align 8, !tbaa !12
  store ptr %30, ptr %7, align 8, !tbaa !12
  %31 = load i64, ptr %23, align 8, !tbaa !22
  %32 = getelementptr inbounds nuw i8, ptr %7, i64 8
  store i64 %31, ptr %32, align 8, !tbaa !22
  %33 = call i32 (ptr, i64, ptr, ...) @snprintf(ptr noundef nonnull dereferenceable(1) %5, i64 noundef 80, ptr noundef nonnull @.str.14, i64 noundef %31) #8
  %34 = getelementptr inbounds nuw i8, ptr %3, i64 88
  %35 = load i64, ptr %34, align 8, !tbaa !29
  %36 = call i32 @H5L_link(ptr noundef nonnull %2, ptr noundef nonnull %5, ptr noundef nonnull %8, i64 noundef %35) #8
  %37 = icmp slt i32 %36, 0
  br i1 %37, label %38, label %42

38:                                               ; preds = %27
  %39 = load i64, ptr @H5E_DATATYPE_g, align 8, !tbaa !10
  %40 = load i64, ptr @H5E_CANTINIT_g, align 8, !tbaa !10
  %41 = call i32 (ptr, ptr, i32, i64, i64, ptr, ...) @H5E_printf_stack(ptr noundef nonnull @.str, ptr noundef nonnull @__func__.H5O__copy_obj_by_ref, i32 noundef 135, i64 noundef %39, i64 noundef %40, ptr noundef nonnull @.str.15) #8
  br label %44

42:                                               ; preds = %27
  %43 = call i32 @H5G_loc_free(ptr noundef nonnull %8) #8
  br label %44

44:                                               ; preds = %42, %38
  %.1 = phi i32 [ -1, %38 ], [ %16, %42 ]
  call void @llvm.lifetime.end.p0(i64 16, ptr nonnull %8) #8
  call void @llvm.lifetime.end.p0(i64 24, ptr nonnull %7) #8
  call void @llvm.lifetime.end.p0(i64 24, ptr nonnull %6) #8
  call void @llvm.lifetime.end.p0(i64 80, ptr nonnull %5) #8
  br label %45

45:                                               ; preds = %44, %4, %22, %18
  %.016 = phi i32 [ -1, %18 ], [ %.1, %44 ], [ %16, %22 ], [ 0, %4 ]
  ret i32 %.016
}